target datalayout = "e-m:e-p270:32:32-p271:32:32-p272:64:64-i64:64-i128:128-f80:128-n8:16:32:64-S128"
target triple = "x86_64-pc-linux-gnu"

%union.pthread_attr_t = type { i64, [48 x i8] }

@plugin_inited = internal global i32 0, align 4
@watch_node_thread_id = internal global i64 0, align 8
@acct_shutdown = internal global i8 1, align 1
@.str.8 = private unnamed_addr constant [56 x i8] c"acct_gather_filesystem_startpoll: poll already started!\00", align 1
@freq = internal global i32 0, align 4
@.str.9 = private unnamed_addr constant [48 x i8] c"acct_gather_filesystem dynamic logging disabled\00", align 1
@.str.10 = private unnamed_addr constant [22 x i8] c"pthread_attr_init: %m\00", align 1
@.str.11 = private unnamed_addr constant [26 x i8] c"pthread_attr_setscope: %m\00", align 1
@.str.12 = private unnamed_addr constant [30 x i8] c"pthread_attr_setstacksize: %m\00", align 1
@.str.13 = private unnamed_addr constant [28 x i8] c"%s: pthread_create error %m\00", align 1
@__func__.acct_gather_filesystem_startpoll = private unnamed_addr constant [33 x i8] c"acct_gather_filesystem_startpoll\00", align 1
@.str.14 = private unnamed_addr constant [55 x i8] c"pthread_attr_destroy failed, possible memory leak!: %m\00", align 1
@.str.15 = private unnamed_addr constant [47 x i8] c"acct_gather_filesystem dynamic logging enabled\00", align 1

; Function Attrs: nounwind uwtable
define dso_local i32 @acct_gather_filesystem_startpoll(i32 noundef %0) #0 {
  %2 = alloca i32, align 4
  %3 = alloca i32, align 4
  %4 = alloca i32, align 4
  %5 = alloca i32, align 4
  %6 = alloca %union.pthread_attr_t, align 8
  %7 = alloca i32, align 4
  %8 = alloca i32, align 4
  %9 = alloca i32, align 4
  store i32 %0, ptr %3, align 4
  call void @llvm.lifetime.start.p0(i64 4, ptr %4) #6
  store i32 0, ptr %4, align 4
  %10 = load i32, ptr @plugin_inited, align 4
  %11 = icmp eq i32 %10, 1
  br i1 %11, label %12, label %14

12:                                               ; preds = %1
  %13 = load i32, ptr %4, align 4
  store i32 %13, ptr %2, align 4
  store i32 1, ptr %5, align 4
  br label %95

14:                                               ; preds = %1
  %15 = load i8, ptr @acct_shutdown, align 1, !range !8, !noundef !9
  %16 = trunc i8 %15 to i1
  br i1 %16, label %20, label %17

17:                                               ; preds = %14
  %18 = call i32 (ptr, ...) @error(ptr noundef @.str.8)
  %19 = load i32, ptr %4, align 4
  store i32 %19, ptr %2, align 4
  store i32 1, ptr %5, align 4
  br label %95

20:                                               ; preds = %14
  store i8 0, ptr @acct_shutdown, align 1
  %21 = load i32, ptr %3, align 4
  store i32 %21, ptr @freq, align 4
  %22 = load i32, ptr %3, align 4
  %23 = icmp eq i32 %22, 0
  br i1 %23, label %24, label %36

24:                                               ; preds = %20
  br label %25

25:                                               ; preds = %24
  br label %26

26:                                               ; preds = %25
  %27 = call i32 @get_log_level()
  %28 = icmp sge i32 %27, 6
  br i1 %28, label %29, label %30

29:                                               ; preds = %26
  call void (i32, ptr, ...) @log_var(i32 noundef 6, ptr noundef @.str.9)
  br label %30

30:                                               ; preds = %29, %26
  br label %31

31:                                               ; preds = %30
  br label %32

32:                                               ; preds = %31
  br label %33

33:                                               ; preds = %32
  br label %34

34:                                               ; preds = %33
  %35 = load i32, ptr %4, align 4
  store i32 %35, ptr %2, align 4
  store i32 1, ptr %5, align 4
  br label %95

36:                                               ; preds = %20
  br label %37

37:                                               ; preds = %36
  call void @llvm.lifetime.start.p0(i64 56, ptr %6) #6
  call void @llvm.lifetime.start.p0(i64 4, ptr %7) #6
  br label %38

38:                                               ; preds = %37
  call void @llvm.lifetime.start.p0(i64 4, ptr %8) #6
  %39 = call i32 @pthread_attr_init(ptr noundef %6) #6
  store i32 %39, ptr %8, align 4
  %40 = load i32, ptr %8, align 4
  %41 = icmp ne i32 %40, 0
  br i1 %41, label %42, label %45

42:                                               ; preds = %38
  %43 = load i32, ptr %8, align 4
  %44 = call ptr @__errno_location() #7
  store i32 %43, ptr %44, align 4
  call void (ptr, ...) @fatal(ptr noundef @.str.10) #8
  unreachable

45:                                               ; preds = %38
  %46 = call i32 @pthread_attr_setscope(ptr noundef %6, i32 noundef 0) #6
  store i32 %46, ptr %8, align 4
  %47 = load i32, ptr %8, align 4
  %48 = icmp ne i32 %47, 0
  br i1 %48, label %49, label %53

49:                                               ; preds = %45
  %50 = load i32, ptr %8, align 4
  %51 = call ptr @__errno_location() #7
  store i32 %50, ptr %51, align 4
  %52 = call i32 (ptr, ...) @error(ptr noundef @.str.11)
  br label %53

53:                                               ; preds = %49, %45
  %54 = call i32 @pthread_attr_setstacksize(ptr noundef %6, i64 noundef 1048576) #6
  store i32 %54, ptr %8, align 4
  %55 = load i32, ptr %8, align 4
  %56 = icmp ne i32 %55, 0
  br i1 %56, label %57, label %61

57:                                               ; preds = %53
  %58 = load i32, ptr %8, align 4
  %59 = call ptr @__errno_location() #7
  store i32 %58, ptr %59, align 4
  %60 = call i32 (ptr, ...) @error(ptr noundef @.str.12)
  br label %61

61:                                               ; preds = %57, %53
  call void @llvm.lifetime.end.p0(i64 4, ptr %8) #6
  br label %62

62:                                               ; preds = %61
  br label %63

63:                                               ; preds = %62
  %64 = call i32 @pthread_create(ptr noundef @watch_node_thread_id, ptr noundef %6, ptr noundef @_watch_node, ptr noundef null) #6
  store i32 %64, ptr %7, align 4
  %65 = load i32, ptr %7, align 4
  %66 = icmp ne i32 %65, 0
  br i1 %66, label %67, label %70

67:                                               ; preds = %63
  %68 = load i32, ptr %7, align 4
  %69 = call ptr @__errno_location() #7
  store i32 %68, ptr %69, align 4
  call void (ptr, ...) @fatal(ptr noundef @.str.13, ptr noundef @__func__.acct_gather_filesystem_startpoll) #8
  unreachable

70:                                               ; preds = %63
  br label %71

71:                                               ; preds = %70
  call void @llvm.lifetime.start.p0(i64 4, ptr %9) #6
  %72 = call i32 @pthread_attr_destroy(ptr noundef %6) #6
  store i32 %72, ptr %9, align 4
  %73 = load i32, ptr %9, align 4
  %74 = icmp ne i32 %73, 0
  br i1 %74, label %75, label %79

75:                                               ; preds = %71
  %76 = load i32, ptr %9, align 4
  %77 = call ptr @__errno_location() #7
  store i32 %76, ptr %77, align 4
  %78 = call i32 (ptr, ...) @error(ptr noundef @.str.14)
  br label %79

79:                                               ; preds = %75, %71
  call void @llvm.lifetime.end.p0(i64 4, ptr %9) #6
  br label %80

80:                                               ; preds = %79
  br label %81

81:                                               ; preds = %80
  call void @llvm.lifetime.end.p0(i64 4, ptr %7) #6
  call void @llvm.lifetime.end.p0(i64 56, ptr %6) #6
  br label %82

82:                                               ; preds = %81
  br label %83

83:                                               ; preds = %82
  br label %84

84:                                               ; preds = %83
  br label %85

85:                                               ; preds = %84
  %86 = call i32 @get_log_level()
  %87 = icmp sge i32 %86, 7
  br i1 %87, label %88, label %89

88:                                               ; preds = %85
  call void (i32, ptr, ...) @log_var(i32 noundef 7, ptr noundef @.str.15)
  br label %89

89:                                               ; preds = %88, %85
  br label %90

90:                                               ; preds = %89
  br label %91

91:                                               ; preds = %90
  br label %92

92:                                               ; preds = %91
  br label %93

93:                                               ; preds = %92
  %94 = load i32, ptr %4, align 4
  store i32 %94, ptr %2, align 4
  store i32 1, ptr %5, align 4
  br label %95

95:                                               ; preds = %93, %34, %17, %12
  call void @llvm.lifetime.end.p0(i64 4, ptr %4) #6
  %96 = load i32, ptr %2, align 4
  ret i32 %96
}