; Function Attrs: nounwind uwtable
define dso_local noundef i32 @acct_gather_filesystem_startpoll(i32 noundef %0) local_unnamed_addr #0 {
  %2 = alloca %union.pthread_attr_t, align 8
  %3 = load i32, ptr @plugin_inited, align 4
  %4 = icmp eq i32 %3, 1
  br i1 %4, label %41, label %5

5:                                                ; preds = %1
  %.b = load i1, ptr @acct_shutdown, align 1
  br i1 %.b, label %6, label %8

6:                                                ; preds = %5
  %7 = tail call i32 (ptr, ...) @error(ptr noundef nonnull @.str.8) #6
  br label %41

8:                                                ; preds = %5
  store i1 true, ptr @acct_shutdown, align 1
  %9 = icmp eq i32 %0, 0
  br i1 %9, label %10, label %14

10:                                               ; preds = %8
  %11 = tail call i32 @get_log_level() #6
  %12 = icmp sgt i32 %11, 5
  br i1 %12, label %13, label %41

13:                                               ; preds = %10
  tail call void (i32, ptr, ...) @log_var(i32 noundef 6, ptr noundef nonnull @.str.9) #6
  br label %41

14:                                               ; preds = %8
  call void @llvm.lifetime.start.p0(i64 56, ptr nonnull %2) #6
  %15 = call i32 @pthread_attr_init(ptr noundef nonnull %2) #6
  %.not = icmp eq i32 %15, 0
  br i1 %.not, label %18, label %16

16:                                               ; preds = %14
  %17 = tail call ptr @__errno_location() #7
  store i32 %15, ptr %17, align 4
  call void (ptr, ...) @fatal(ptr noundef nonnull @.str.10) #8
  unreachable

18:                                               ; preds = %14
  %19 = call i32 @pthread_attr_setscope(ptr noundef nonnull %2, i32 noundef 0) #6
  %.not21 = icmp eq i32 %19, 0
  br i1 %.not21, label %23, label %20

20:                                               ; preds = %18
  %21 = tail call ptr @__errno_location() #7
  store i32 %19, ptr %21, align 4
  %22 = call i32 (ptr, ...) @error(ptr noundef nonnull @.str.11) #6
  br label %23

23:                                               ; preds = %20, %18
  %24 = call i32 @pthread_attr_setstacksize(ptr noundef nonnull %2, i64 noundef 1048576) #6
  %.not22 = icmp eq i32 %24, 0
  br i1 %.not22, label %28, label %25

25:                                               ; preds = %23
  %26 = tail call ptr @__errno_location() #7
  store i32 %24, ptr %26, align 4
  %27 = call i32 (ptr, ...) @error(ptr noundef nonnull @.str.12) #6
  br label %28

28:                                               ; preds = %25, %23
  %29 = call i32 @pthread_create(ptr noundef nonnull @watch_node_thread_id, ptr noundef nonnull %2, ptr noundef nonnull @_watch_node, ptr noundef null) #6
  %.not23 = icmp eq i32 %29, 0
  br i1 %.not23, label %32, label %30

30:                                               ; preds = %28
  %31 = tail call ptr @__errno_location() #7
  store i32 %29, ptr %31, align 4
  call void (ptr, ...) @fatal(ptr noundef nonnull @.str.13, ptr noundef nonnull @__func__.acct_gather_filesystem_startpoll) #8
  unreachable

32:                                               ; preds = %28
  %33 = call i32 @pthread_attr_destroy(ptr noundef nonnull %2) #6
  %.not24 = icmp eq i32 %33, 0
  br i1 %.not24, label %37, label %34

34:                                               ; preds = %32
  %35 = tail call ptr @__errno_location() #7
  store i32 %33, ptr %35, align 4
  %36 = call i32 (ptr, ...) @error(ptr noundef nonnull @.str.14) #6
  br label %37

37:                                               ; preds = %34, %32
  call void @llvm.lifetime.end.p0(i64 56, ptr nonnull %2) #6
  %38 = call i32 @get_log_level() #6
  %39 = icmp sgt i32 %38, 6
  br i1 %39, label %40, label %41

40:                                               ; preds = %37
  call void (i32, ptr, ...) @log_var(i32 noundef 7, ptr noundef nonnull @.str.15) #6
  br label %41

41:                                               ; preds = %37, %40, %10, %13, %1, %6
  ret i32 0
}